; Function Attrs: mustprogress uwtable
define internal void @_ZN9grpc_core12_GLOBAL__N_118OutlierDetectionLb13EjectionTimer6OrphanEv(ptr noundef nonnull align 8 dereferenceable(344) %0) unnamed_addr #3 align 2 {
  %2 = getelementptr inbounds nuw i8, ptr %0, i64 40
  %3 = load i8, ptr %2, align 8, !tbaa !189, !range !80, !noundef !81
  %4 = trunc nuw i8 %3 to i1
  br i1 %4, label %5, label %_ZNSt8optionalIN17grpc_event_engine12experimental11EventEngine10TaskHandleEE5resetEv.exit

5:                                                ; preds = %1
  %6 = getelementptr inbounds nuw i8, ptr %0, i64 24
  %7 = getelementptr inbounds nuw i8, ptr %0, i64 16
  %.val = load ptr, ptr %7, align 8, !tbaa !191
  %8 = getelementptr inbounds nuw i8, ptr %.val, i64 40
  %9 = load ptr, ptr %8, align 8, !tbaa !94
  %10 = load ptr, ptr %9, align 8, !tbaa !4
  %11 = getelementptr inbounds nuw i8, ptr %10, i64 72
  %12 = load ptr, ptr %11, align 8
  %13 = tail call noundef ptr %12(ptr noundef nonnull align 8 dereferenceable(8) %9)
  %.sroa.0.0.copyload = load i64, ptr %6, align 8
  %.sroa.2.0..sroa_idx = getelementptr inbounds nuw i8, ptr %0, i64 32
  %.sroa.2.0.copyload = load i64, ptr %.sroa.2.0..sroa_idx, align 8, !tbaa !7
  %14 = load ptr, ptr %13, align 8, !tbaa !4
  %15 = getelementptr inbounds nuw i8, ptr %14, i64 96
  %16 = load ptr, ptr %15, align 8
  %17 = tail call noundef zeroext i1 %16(ptr noundef nonnull align 8 dereferenceable(24) %13, i64 %.sroa.0.0.copyload, i64 %.sroa.2.0.copyload)
  %18 = load i8, ptr %2, align 8, !tbaa !189, !range !80, !noundef !81
  %19 = trunc nuw i8 %18 to i1
  br i1 %19, label %20, label %_ZNSt8optionalIN17grpc_event_engine12experimental11EventEngine10TaskHandleEE5resetEv.exit

20:                                               ; preds = %5
  store i8 0, ptr %2, align 8, !tbaa !189
  br label %_ZNSt8optionalIN17grpc_event_engine12experimental11EventEngine10TaskHandleEE5resetEv.exit

_ZNSt8optionalIN17grpc_event_engine12experimental11EventEngine10TaskHandleEE5resetEv.exit: ; preds = %20, %5, %1
  %21 = getelementptr inbounds nuw i8, ptr %0, i64 8
  %22 = atomicrmw sub ptr %21, i64 1 acq_rel, align 8
  %23 = icmp eq i64 %22, 1
  br i1 %23, label %24, label %_ZN9grpc_core20InternallyRefCountedINS_12_GLOBAL__N_118OutlierDetectionLb13EjectionTimerENS_11UnrefDeleteEE5UnrefEv.exit, !prof !99

24:                                               ; preds = %_ZNSt8optionalIN17grpc_event_engine12experimental11EventEngine10TaskHandleEE5resetEv.exit
  tail call fastcc void @_ZNK9grpc_core11UnrefDeleteclINS_12_GLOBAL__N_118OutlierDetectionLb13EjectionTimerEEEvPT_(ptr noundef nonnull align 8 dereferenceable(16) %0)
  br label %_ZN9grpc_core20InternallyRefCountedINS_12_GLOBAL__N_118OutlierDetectionLb13EjectionTimerENS_11UnrefDeleteEE5UnrefEv.exit

_ZN9grpc_core20InternallyRefCountedINS_12_GLOBAL__N_118OutlierDetectionLb13EjectionTimerENS_11UnrefDeleteEE5UnrefEv.exit: ; preds = %_ZNSt8optionalIN17grpc_event_engine12experimental11EventEngine10TaskHandleEE5resetEv.exit, %24
  ret void
}